; Function Attrs: mustprogress uwtable
define dso_local noundef zeroext i1 @_ZNK5vcpkg14VersionMapLessclERKNS_7VersionES3_(ptr nocapture noundef nonnull readnone align 1 dereferenceable(1) %0, ptr noundef nonnull align 8 dereferenceable(36) %1, ptr noundef nonnull align 8 dereferenceable(36) %2) local_unnamed_addr #2 align 2 {
  %4 = tail call noundef i32 @_ZNKSt7__cxx1112basic_stringIcSt11char_traitsIcESaIcEE7compareERKS4_(ptr noundef nonnull align 8 dereferenceable(32) %1, ptr noundef nonnull align 8 dereferenceable(32) %2)
  %5 = icmp slt i32 %4, 0
  br i1 %5, label %13, label %6

6:                                                ; preds = %3
  %.not = icmp eq i32 %4, 0
  br i1 %.not, label %7, label %13

7:                                                ; preds = %6
  %8 = getelementptr inbounds i8, ptr %1, i64 32
  %9 = load i32, ptr %8, align 8
  %10 = getelementptr inbounds i8, ptr %2, i64 32
  %11 = load i32, ptr %10, align 8
  %12 = icmp slt i32 %9, %11
  br label %13

13:                                               ; preds = %6, %3, %7
  %.0 = phi i1 [ %12, %7 ], [ true, %3 ], [ false, %6 ]
  ret i1 %.0
}